; Function Attrs: nofree norecurse nosync nounwind memory(argmem: readwrite) uwtable
define void @ff_h264_idct_dc_add_8_c(ptr noundef captures(none) %0, ptr noundef captures(none) %1, i32 noundef %2) local_unnamed_addr #0 {
  %4 = load i16, ptr %1, align 2, !tbaa !4
  %5 = sext i16 %4 to i32
  %6 = add nsw i32 %5, 32
  %7 = ashr i32 %6, 6
  %8 = sext i32 %2 to i64
  store i16 0, ptr %1, align 2, !tbaa !4
  br label %.preheader

.preheader:                                       ; preds = %3, %16
  %.01519 = phi ptr [ %0, %3 ], [ %17, %16 ]
  %.01618 = phi i32 [ 0, %3 ], [ %18, %16 ]
  br label %9

9:                                                ; preds = %.preheader, %9
  %indvars.iv = phi i64 [ 0, %.preheader ], [ %indvars.iv.next, %9 ]
  %10 = getelementptr inbounds nuw i8, ptr %.01519, i64 %indvars.iv
  %11 = load i8, ptr %10, align 1, !tbaa !10
  %12 = zext i8 %11 to i32
  %13 = add nsw i32 %7, %12
  %.not.i = icmp ult i32 %13, 256
  %isnotneg.i = icmp sgt i32 %13, -1
  %14 = sext i1 %isnotneg.i to i8
  %15 = trunc nuw i32 %13 to i8
  %.0.i = select i1 %.not.i, i8 %15, i8 %14
  store i8 %.0.i, ptr %10, align 1, !tbaa !10
  %indvars.iv.next = add nuw nsw i64 %indvars.iv, 1
  %exitcond.not = icmp eq i64 %indvars.iv.next, 4
  br i1 %exitcond.not, label %16, label %9, !llvm.loop !14

16:                                               ; preds = %9
  %17 = getelementptr inbounds i8, ptr %.01519, i64 %8
  %18 = add nuw nsw i32 %.01618, 1
  %exitcond21.not = icmp eq i32 %18, 4
  br i1 %exitcond21.not, label %19, label %.preheader, !llvm.loop !15

19:                                               ; preds = %16
  ret void
}